; Function Attrs: nounwind uwtable
define dso_local noundef ptr @makeFuncCall(ptr noundef %0, ptr noundef %1, i32 noundef %2, i32 noundef %3) local_unnamed_addr #0 {
  %5 = tail call noundef ptr @palloc0(i64 noundef 64) #7
  store i32 76, ptr %5, align 4
  %6 = getelementptr inbounds nuw i8, ptr %5, i64 8
  store ptr %0, ptr %6, align 8
  %7 = getelementptr inbounds nuw i8, ptr %5, i64 16
  store ptr %1, ptr %7, align 8
  %8 = getelementptr inbounds nuw i8, ptr %5, i64 24
  %9 = getelementptr inbounds nuw i8, ptr %5, i64 52
  tail call void @llvm.memset.p0.i64(ptr noundef nonnull align 8 dereferenceable(28) %8, i8 0, i64 28, i1 false)
  store i32 %2, ptr %9, align 4
  %10 = getelementptr inbounds nuw i8, ptr %5, i64 56
  store i32 %3, ptr %10, align 8
  ret ptr %5
}